; ModuleID = '57/3356.c'
source_filename = "57/3356.c"
target datalayout = "e-m:e-p270:32:32-p271:32:32-p272:64:64-i64:64-f80:128-n8:16:32:64-S128"
target triple = "x86_64-pc-linux-gnu"

@.str = private unnamed_addr constant [3 x i8] c"%d\00", align 1
@.str.1 = private unnamed_addr constant [4 x i8] c"%s\0A\00", align 1

; Function Attrs: noinline nounwind uwtable
define dso_local void @main() #0 {
  %1 = alloca i32, align 4
  %2 = alloca i32, align 4
  %3 = alloca i32, align 4
  %4 = alloca [30 x i8], align 16
  %5 = alloca i8*, align 8
  %6 = alloca [20 x i8], align 16
  %7 = call i32 (i8*, ...) @__isoc99_scanf(i8* getelementptr inbounds ([3 x i8], [3 x i8]* @.str, i64 0, i64 0), i32* %1)
  %8 = getelementptr inbounds [20 x i8], [20 x i8]* %6, i64 0, i64 0
  %9 = call i32 (i8*, ...) bitcast (i32 (...)* @gets to i32 (i8*, ...)*)(i8* %8)
  store i32 1, i32* %3, align 4
  br label %10

10:                                               ; preds = %75, %0
  %11 = load i32, i32* %3, align 4
  %12 = load i32, i32* %1, align 4
  %13 = icmp sle i32 %11, %12
  br i1 %13, label %14, label %78

14:                                               ; preds = %10
  %15 = getelementptr inbounds [30 x i8], [30 x i8]* %4, i64 0, i64 0
  %16 = call i32 (i8*, ...) bitcast (i32 (...)* @gets to i32 (i8*, ...)*)(i8* %15)
  %17 = getelementptr inbounds [30 x i8], [30 x i8]* %4, i64 0, i64 0
  %18 = call i64 @strlen(i8* %17) #3
  %19 = trunc i64 %18 to i32
  store i32 %19, i32* %2, align 4
  %20 = getelementptr inbounds [30 x i8], [30 x i8]* %4, i64 0, i64 0
  %21 = load i32, i32* %2, align 4
  %22 = sext i32 %21 to i64
  %23 = getelementptr inbounds i8, i8* %20, i64 %22
  %24 = getelementptr inbounds i8, i8* %23, i64 -1
  store i8* %24, i8** %5, align 8
  %25 = load i8*, i8** %5, align 8
  %26 = load i8, i8* %25, align 1
  %27 = sext i8 %26 to i32
  %28 = icmp eq i32 %27, 121
  br i1 %28, label %29, label %38

29:                                               ; preds = %14
  %30 = load i8*, i8** %5, align 8
  %31 = getelementptr inbounds i8, i8* %30, i64 -1
  %32 = load i8, i8* %31, align 1
  %33 = sext i8 %32 to i32
  %34 = icmp eq i32 %33, 108
  br i1 %34, label %35, label %38

35:                                               ; preds = %29
  %36 = load i8*, i8** %5, align 8
  %37 = getelementptr inbounds i8, i8* %36, i64 -1
  store i8 0, i8* %37, align 1
  br label %38

38:                                               ; preds = %35, %29, %14
  %39 = load i8*, i8** %5, align 8
  %40 = load i8, i8* %39, align 1
  %41 = sext i8 %40 to i32
  %42 = icmp eq i32 %41, 103
  br i1 %42, label %43, label %58

43:                                               ; preds = %38
  %44 = load i8*, i8** %5, align 8
  %45 = getelementptr inbounds i8, i8* %44, i64 -1
  %46 = load i8, i8* %45, align 1
  %47 = sext i8 %46 to i32
  %48 = icmp eq i32 %47, 110
  br i1 %48, label %49, label %58

49:                                               ; preds = %43
  %50 = load i8*, i8** %5, align 8
  %51 = getelementptr inbounds i8, i8* %50, i64 -2
  %52 = load i8, i8* %51, align 1
  %53 = sext i8 %52 to i32
  %54 = icmp eq i32 %53, 105
  br i1 %54, label %55, label %58

55:                                               ; preds = %49
  %56 = load i8*, i8** %5, align 8
  %57 = getelementptr inbounds i8, i8* %56, i64 -2
  store i8 0, i8* %57, align 1
  br label %58

58:                                               ; preds = %55, %49, %43, %38
  %59 = load i8*, i8** %5, align 8
  %60 = load i8, i8* %59, align 1
  %61 = sext i8 %60 to i32
  %62 = icmp eq i32 %61, 114
  br i1 %62, label %63, label %72

63:                                               ; preds = %58
  %64 = load i8*, i8** %5, align 8
  %65 = getelementptr inbounds i8, i8* %64, i64 -1
  %66 = load i8, i8* %65, align 1
  %67 = sext i8 %66 to i32
  %68 = icmp eq i32 %67, 101
  br i1 %68, label %69, label %72

69:                                               ; preds = %63
  %70 = load i8*, i8** %5, align 8
  %71 = getelementptr inbounds i8, i8* %70, i64 -1
  store i8 0, i8* %71, align 1
  br label %72

72:                                               ; preds = %69, %63, %58
  %73 = getelementptr inbounds [30 x i8], [30 x i8]* %4, i64 0, i64 0
  %74 = call i32 (i8*, ...) @printf(i8* getelementptr inbounds ([4 x i8], [4 x i8]* @.str.1, i64 0, i64 0), i8* %73)
  br label %75

75:                                               ; preds = %72
  %76 = load i32, i32* %3, align 4
  %77 = add nsw i32 %76, 1
  store i32 %77, i32* %3, align 4
  br label %10

78:                                               ; preds = %10
  ret void
}

declare dso_local i32 @__isoc99_scanf(i8*, ...) #1

declare dso_local i32 @gets(...) #1

; Function Attrs: nounwind readonly
declare dso_local i64 @strlen(i8*) #2

declare dso_local i32 @printf(i8*, ...) #1


!llvm.module.flags = !{!0}
!llvm.ident = !{!1}

!0 = !{i32 1, !"wchar_size", i32 4}
!1 = !{!"clang version 10.0.0-4ubuntu1 "}
